; Function Attrs: mustprogress uwtable
define void @_ZN3net10SpdyFramer28UpdateHeaderDecoderTableSizeEj(ptr noundef nonnull align 8 captures(none) dereferenceable(259) %0, i32 noundef %1) local_unnamed_addr #0 align 2 personality ptr @__gxx_personality_v0 {
  %3 = getelementptr inbounds nuw i8, ptr %0, i64 168
  %4 = load ptr, ptr %3, align 8, !tbaa !102
  %5 = icmp eq ptr %4, null
  br i1 %5, label %6, label %_ZN3net10SpdyFramer15GetHpackDecoderEv.exit

6:                                                ; preds = %2
  %7 = tail call noalias noundef nonnull dereferenceable(480) ptr @_Znwm(i64 noundef 480) #29
  invoke void @_ZN3net12HpackDecoderC1Ev(ptr noundef nonnull align 8 dereferenceable(480) %7)
          to label %8 unwind label %13

8:                                                ; preds = %6
  %9 = load ptr, ptr %3, align 8, !tbaa !102
  store ptr %7, ptr %3, align 8, !tbaa !102
  %.not.i.i.i = icmp eq ptr %9, null
  br i1 %.not.i.i.i, label %_ZN3net10SpdyFramer15GetHpackDecoderEv.exit, label %_ZNKSt14default_deleteIN3net21HpackDecoderInterfaceEEclEPS1_.exit.i.i.i

_ZNKSt14default_deleteIN3net21HpackDecoderInterfaceEEclEPS1_.exit.i.i.i: ; preds = %8
  %10 = load ptr, ptr %9, align 8, !tbaa !9
  %11 = getelementptr inbounds nuw i8, ptr %10, i64 8
  %12 = load ptr, ptr %11, align 8
  tail call void %12(ptr noundef nonnull align 8 dereferenceable(8) %9) #25
  %.pre.i = load ptr, ptr %3, align 8, !tbaa !102
  br label %_ZN3net10SpdyFramer15GetHpackDecoderEv.exit

13:                                               ; preds = %6
  %14 = landingpad { ptr, i32 }
          cleanup
  tail call void @_ZdlPv(ptr noundef nonnull %7) #26
  resume { ptr, i32 } %14

_ZN3net10SpdyFramer15GetHpackDecoderEv.exit:      ; preds = %2, %8, %_ZNKSt14default_deleteIN3net21HpackDecoderInterfaceEEclEPS1_.exit.i.i.i
  %15 = phi ptr [ %.pre.i, %_ZNKSt14default_deleteIN3net21HpackDecoderInterfaceEEclEPS1_.exit.i.i.i ], [ %7, %8 ], [ %4, %2 ]
  %16 = zext i32 %1 to i64
  %17 = load ptr, ptr %15, align 8, !tbaa !9
  %18 = getelementptr inbounds nuw i8, ptr %17, i64 16
  %19 = load ptr, ptr %18, align 8
  tail call void %19(ptr noundef nonnull align 8 dereferenceable(8) %15, i64 noundef %16)
  ret void
}